; Function Attrs: nounwind uwtable
define ptr @l_Lake_instMonadStoreStateTRBArrayOfMonad___rarg___lambda__3(ptr noundef %0, ptr noundef %1, ptr noundef %2, ptr noundef %3, ptr noundef %4) #0 {
  %6 = getelementptr inbounds nuw i8, ptr %0, i64 8
  %7 = load ptr, ptr %6, align 8, !tbaa !9
  %8 = ptrtoint ptr %7 to i64
  %9 = and i64 %8, 1
  %.not = icmp eq i64 %9, 0
  br i1 %.not, label %10, label %lean_inc.exit17

10:                                               ; preds = %5
  %.val.i = load i32, ptr %7, align 4, !tbaa !4
  %11 = icmp sgt i32 %.val.i, 0
  br i1 %11, label %12, label %14, !prof !11

12:                                               ; preds = %10
  %13 = add nuw i32 %.val.i, 1
  store i32 %13, ptr %7, align 4, !tbaa !4
  br label %lean_inc.exit17

14:                                               ; preds = %10
  %.not.i21 = icmp eq i32 %.val.i, 0
  br i1 %.not.i21, label %lean_inc.exit17, label %15

15:                                               ; preds = %14
  tail call void @lean_inc_ref_cold(ptr noundef nonnull %7) #3
  br label %lean_inc.exit17

lean_inc.exit17:                                  ; preds = %15, %14, %12, %5
  %16 = ptrtoint ptr %0 to i64
  %17 = and i64 %16, 1
  %.not25 = icmp eq i64 %17, 0
  br i1 %.not25, label %18, label %lean_dec.exit18

18:                                               ; preds = %lean_inc.exit17
  %19 = load i32, ptr %0, align 4, !tbaa !4
  %20 = icmp sgt i32 %19, 1
  br i1 %20, label %21, label %23, !prof !11

21:                                               ; preds = %18
  %22 = add nsw i32 %19, -1
  store i32 %22, ptr %0, align 4, !tbaa !4
  br label %lean_dec.exit18

23:                                               ; preds = %18
  %.not.i = icmp eq i32 %19, 0
  br i1 %.not.i, label %lean_dec.exit18, label %24

24:                                               ; preds = %23
  tail call void @lean_dec_ref_cold(ptr noundef nonnull %0) #3
  br label %lean_dec.exit18

lean_dec.exit18:                                  ; preds = %24, %23, %21, %lean_inc.exit17
  %25 = getelementptr inbounds nuw i8, ptr %7, i64 16
  %26 = load ptr, ptr %25, align 8, !tbaa !9
  %27 = ptrtoint ptr %26 to i64
  %28 = and i64 %27, 1
  %.not26 = icmp eq i64 %28, 0
  br i1 %.not26, label %29, label %lean_inc.exit

29:                                               ; preds = %lean_dec.exit18
  %.val.i22 = load i32, ptr %26, align 4, !tbaa !4
  %30 = icmp sgt i32 %.val.i22, 0
  br i1 %30, label %31, label %33, !prof !11

31:                                               ; preds = %29
  %32 = add nuw i32 %.val.i22, 1
  store i32 %32, ptr %26, align 4, !tbaa !4
  br label %lean_inc.exit

33:                                               ; preds = %29
  %.not.i23 = icmp eq i32 %.val.i22, 0
  br i1 %.not.i23, label %lean_inc.exit, label %34

34:                                               ; preds = %33
  tail call void @lean_inc_ref_cold(ptr noundef nonnull %26) #3
  br label %lean_inc.exit

lean_inc.exit:                                    ; preds = %34, %33, %31, %lean_dec.exit18
  br i1 %.not, label %35, label %lean_dec.exit

35:                                               ; preds = %lean_inc.exit
  %36 = load i32, ptr %7, align 4, !tbaa !4
  %37 = icmp sgt i32 %36, 1
  br i1 %37, label %38, label %40, !prof !11

38:                                               ; preds = %35
  %39 = add nsw i32 %36, -1
  store i32 %39, ptr %7, align 4, !tbaa !4
  br label %lean_dec.exit

40:                                               ; preds = %35
  %.not.i19 = icmp eq i32 %36, 0
  br i1 %.not.i19, label %lean_dec.exit, label %41

41:                                               ; preds = %40
  tail call void @lean_dec_ref_cold(ptr noundef nonnull %7) #3
  br label %lean_dec.exit

lean_dec.exit:                                    ; preds = %41, %40, %38, %lean_inc.exit
  %42 = tail call ptr @l_Lake_RBArray_insert___rarg(ptr noundef %1, ptr noundef %4, ptr noundef %2, ptr noundef %3) #3
  tail call void @lean_inc_heartbeat() #3
  %43 = tail call noalias ptr @mi_malloc_small(i64 noundef 24) #3
  %44 = icmp eq ptr %43, null
  br i1 %44, label %45, label %lean_alloc_ctor.exit

45:                                               ; preds = %lean_dec.exit
  tail call void @lean_internal_panic_out_of_memory() #4
  unreachable

lean_alloc_ctor.exit:                             ; preds = %lean_dec.exit
  %46 = getelementptr inbounds nuw i8, ptr %43, i64 4
  store i32 1, ptr %43, align 4, !tbaa !4
  store i32 131096, ptr %46, align 4
  %47 = getelementptr inbounds nuw i8, ptr %43, i64 8
  store ptr inttoptr (i64 1 to ptr), ptr %47, align 8, !tbaa !9
  %48 = getelementptr inbounds nuw i8, ptr %43, i64 16
  store ptr %42, ptr %48, align 8, !tbaa !9
  %49 = tail call ptr @lean_apply_2(ptr noundef %26, ptr noundef nonnull inttoptr (i64 1 to ptr), ptr noundef nonnull %43) #3
  ret ptr %49
}